target datalayout = "e-m:e-p270:32:32-p271:32:32-p272:64:64-i64:64-i128:128-f80:128-n8:16:32:64-S128"
target triple = "x86_64-pc-linux-gnu"

%struct.ident_t = type { i32, i32, i32, i32, ptr }
%"class.ncnn::LayerNorm" = type { %"class.ncnn::Layer", i32, float, i32, %"class.ncnn::Mat", %"class.ncnn::Mat" }
%"class.ncnn::Layer" = type { ptr, i8, i8, i8, i8, i8, i8, i8, i8, i8, i8, i8, i8, i8, i8, i8, i8, i8, i8, i8, i8, i32, ptr, i32, %"class.std::__cxx11::basic_string", %"class.std::__cxx11::basic_string", %"class.std::vector", %"class.std::vector", %"class.std::vector.3", %"class.std::vector.3" }
%"class.std::__cxx11::basic_string" = type { %"struct.std::__cxx11::basic_string<char>::_Alloc_hider", i64, %union.anon }
%"struct.std::__cxx11::basic_string<char>::_Alloc_hider" = type { ptr }
%union.anon = type { i64, [8 x i8] }
%"class.std::vector" = type { %"struct.std::_Vector_base" }
%"struct.std::_Vector_base" = type { %"struct.std::_Vector_base<int, std::allocator<int>>::_Vector_impl" }
%"struct.std::_Vector_base<int, std::allocator<int>>::_Vector_impl" = type { %"struct.std::_Vector_base<int, std::allocator<int>>::_Vector_impl_data" }
%"struct.std::_Vector_base<int, std::allocator<int>>::_Vector_impl_data" = type { ptr, ptr, ptr }
%"class.std::vector.3" = type { %"struct.std::_Vector_base.4" }
%"struct.std::_Vector_base.4" = type { %"struct.std::_Vector_base<ncnn::Mat, std::allocator<ncnn::Mat>>::_Vector_impl" }
%"struct.std::_Vector_base<ncnn::Mat, std::allocator<ncnn::Mat>>::_Vector_impl" = type { %"struct.std::_Vector_base<ncnn::Mat, std::allocator<ncnn::Mat>>::_Vector_impl_data" }
%"struct.std::_Vector_base<ncnn::Mat, std::allocator<ncnn::Mat>>::_Vector_impl_data" = type { ptr, ptr, ptr }
%"class.ncnn::Mat" = type { ptr, ptr, i64, i32, ptr, i32, i32, i32, i32, i32, i64 }

@1 = private unnamed_addr constant %struct.ident_t { i32 0, i32 514, i32 0, i32 22, ptr @0 }, align 8

; Function Attrs: alwaysinline mustprogress nounwind uwtable
define internal void @_ZN4ncnnL8fastFreeEPv(ptr noundef %0) #4 {
  %2 = alloca ptr, align 8
  store ptr %0, ptr %2, align 8, !tbaa !71
  %3 = load ptr, ptr %2, align 8, !tbaa !71
  %4 = icmp ne ptr %3, null
  br i1 %4, label %5, label %7

5:                                                ; preds = %1
  %6 = load ptr, ptr %2, align 8, !tbaa !71
  call void @free(ptr noundef %6) #7
  br label %7

7:                                                ; preds = %5, %1
  ret void
}

; Function Attrs: alwaysinline mustprogress nounwind uwtable
define internal noundef i64 @_ZN4ncnnL9alignSizeEmi(i64 noundef %0, i32 noundef %1) #4 {
  %3 = alloca i64, align 8
  %4 = alloca i32, align 4
  store i64 %0, ptr %3, align 8, !tbaa !72
  store i32 %1, ptr %4, align 4, !tbaa !23
  %5 = load i64, ptr %3, align 8, !tbaa !72
  %6 = load i32, ptr %4, align 4, !tbaa !23
  %7 = sext i32 %6 to i64
  %8 = add i64 %5, %7
  %9 = sub i64 %8, 1
  %10 = load i32, ptr %4, align 4, !tbaa !23
  %11 = sub nsw i32 0, %10
  %12 = sext i32 %11 to i64
  %13 = and i64 %9, %12
  ret i64 %13
}

; Function Attrs: alwaysinline mustprogress uwtable
define linkonce_odr hidden void @_ZN4ncnn3Mat7releaseEv(ptr noundef nonnull align 8 dereferenceable(72) %0) #9 comdat align 2 {
  %2 = alloca ptr, align 8
  %3 = alloca i32, align 4
  %4 = alloca i32, align 4
  store ptr %0, ptr %2, align 8, !tbaa !13
  %5 = load ptr, ptr %2, align 8
  %6 = getelementptr inbounds nuw %"class.ncnn::Mat", ptr %5, i32 0, i32 1
  %7 = load ptr, ptr %6, align 8, !tbaa !74
  %8 = icmp ne ptr %7, null
  br i1 %8, label %9, label %32

9:                                                ; preds = %1
  %10 = getelementptr inbounds nuw %"class.ncnn::Mat", ptr %5, i32 0, i32 1
  %11 = load ptr, ptr %10, align 8, !tbaa !74
  store i32 -1, ptr %3, align 4, !tbaa !23
  %12 = load i32, ptr %3, align 4
  %13 = atomicrmw add ptr %11, i32 %12 acq_rel, align 4
  store i32 %13, ptr %4, align 4
  %14 = load i32, ptr %4, align 4, !tbaa !23
  %15 = icmp eq i32 %14, 1
  br i1 %15, label %16, label %32

16:                                               ; preds = %9
  %17 = getelementptr inbounds nuw %"class.ncnn::Mat", ptr %5, i32 0, i32 4
  %18 = load ptr, ptr %17, align 8, !tbaa !70
  %19 = icmp ne ptr %18, null
  br i1 %19, label %20, label %28

20:                                               ; preds = %16
  %21 = getelementptr inbounds nuw %"class.ncnn::Mat", ptr %5, i32 0, i32 4
  %22 = load ptr, ptr %21, align 8, !tbaa !70
  %23 = getelementptr inbounds nuw %"class.ncnn::Mat", ptr %5, i32 0, i32 0
  %24 = load ptr, ptr %23, align 8, !tbaa !50
  %25 = load ptr, ptr %22, align 8, !tbaa !9
  %26 = getelementptr inbounds ptr, ptr %25, i64 3
  %27 = load ptr, ptr %26, align 8
  call void %27(ptr noundef nonnull align 8 dereferenceable(8) %22, ptr noundef %24)
  br label %31

28:                                               ; preds = %16
  %29 = getelementptr inbounds nuw %"class.ncnn::Mat", ptr %5, i32 0, i32 0
  %30 = load ptr, ptr %29, align 8, !tbaa !50
  call void @_ZN4ncnnL8fastFreeEPv(ptr noundef %30)
  br label %31

31:                                               ; preds = %28, %20
  br label %32

32:                                               ; preds = %31, %9, %1
  %33 = getelementptr inbounds nuw %"class.ncnn::Mat", ptr %5, i32 0, i32 0
  store ptr null, ptr %33, align 8, !tbaa !50
  %34 = getelementptr inbounds nuw %"class.ncnn::Mat", ptr %5, i32 0, i32 2
  store i64 0, ptr %34, align 8, !tbaa !64
  %35 = getelementptr inbounds nuw %"class.ncnn::Mat", ptr %5, i32 0, i32 3
  store i32 0, ptr %35, align 8, !tbaa !24
  %36 = getelementptr inbounds nuw %"class.ncnn::Mat", ptr %5, i32 0, i32 5
  store i32 0, ptr %36, align 8, !tbaa !17
  %37 = getelementptr inbounds nuw %"class.ncnn::Mat", ptr %5, i32 0, i32 6
  store i32 0, ptr %37, align 4, !tbaa !25
  %38 = getelementptr inbounds nuw %"class.ncnn::Mat", ptr %5, i32 0, i32 7
  store i32 0, ptr %38, align 8, !tbaa !26
  %39 = getelementptr inbounds nuw %"class.ncnn::Mat", ptr %5, i32 0, i32 8
  store i32 0, ptr %39, align 4, !tbaa !68
  %40 = getelementptr inbounds nuw %"class.ncnn::Mat", ptr %5, i32 0, i32 9
  store i32 0, ptr %40, align 8, !tbaa !27
  %41 = getelementptr inbounds nuw %"class.ncnn::Mat", ptr %5, i32 0, i32 10
  store i64 0, ptr %41, align 8, !tbaa !69
  %42 = getelementptr inbounds nuw %"class.ncnn::Mat", ptr %5, i32 0, i32 1
  store ptr null, ptr %42, align 8, !tbaa !74
  ret void
}

; Function Attrs: alwaysinline mustprogress uwtable
define linkonce_odr hidden void @_ZN4ncnn3MatC2EiiiPvmiPNS_9AllocatorE(ptr noundef nonnull align 8 dereferenceable(72) %0, i32 noundef %1, i32 noundef %2, i32 noundef %3, ptr noundef %4, i64 noundef %5, i32 noundef %6, ptr noundef %7) unnamed_addr #9 comdat align 2 {
  %9 = alloca ptr, align 8
  %10 = alloca i32, align 4
  %11 = alloca i32, align 4
  %12 = alloca i32, align 4
  %13 = alloca ptr, align 8
  %14 = alloca i64, align 8
  %15 = alloca i32, align 4
  %16 = alloca ptr, align 8
  store ptr %0, ptr %9, align 8, !tbaa !13
  store i32 %1, ptr %10, align 4, !tbaa !23
  store i32 %2, ptr %11, align 4, !tbaa !23
  store i32 %3, ptr %12, align 4, !tbaa !23
  store ptr %4, ptr %13, align 8, !tbaa !71
  store i64 %5, ptr %14, align 8, !tbaa !72
  store i32 %6, ptr %15, align 4, !tbaa !23
  store ptr %7, ptr %16, align 8, !tbaa !73
  %17 = load ptr, ptr %9, align 8
  %18 = getelementptr inbounds nuw %"class.ncnn::Mat", ptr %17, i32 0, i32 0
  %19 = load ptr, ptr %13, align 8, !tbaa !71
  store ptr %19, ptr %18, align 8, !tbaa !50
  %20 = getelementptr inbounds nuw %"class.ncnn::Mat", ptr %17, i32 0, i32 1
  store ptr null, ptr %20, align 8, !tbaa !74
  %21 = getelementptr inbounds nuw %"class.ncnn::Mat", ptr %17, i32 0, i32 2
  %22 = load i64, ptr %14, align 8, !tbaa !72
  store i64 %22, ptr %21, align 8, !tbaa !64
  %23 = getelementptr inbounds nuw %"class.ncnn::Mat", ptr %17, i32 0, i32 3
  %24 = load i32, ptr %15, align 4, !tbaa !23
  store i32 %24, ptr %23, align 8, !tbaa !24
  %25 = getelementptr inbounds nuw %"class.ncnn::Mat", ptr %17, i32 0, i32 4
  %26 = load ptr, ptr %16, align 8, !tbaa !73
  store ptr %26, ptr %25, align 8, !tbaa !70
  %27 = getelementptr inbounds nuw %"class.ncnn::Mat", ptr %17, i32 0, i32 5
  store i32 3, ptr %27, align 8, !tbaa !17
  %28 = getelementptr inbounds nuw %"class.ncnn::Mat", ptr %17, i32 0, i32 6
  %29 = load i32, ptr %10, align 4, !tbaa !23
  store i32 %29, ptr %28, align 4, !tbaa !25
  %30 = getelementptr inbounds nuw %"class.ncnn::Mat", ptr %17, i32 0, i32 7
  %31 = load i32, ptr %11, align 4, !tbaa !23
  store i32 %31, ptr %30, align 8, !tbaa !26
  %32 = getelementptr inbounds nuw %"class.ncnn::Mat", ptr %17, i32 0, i32 8
  store i32 1, ptr %32, align 4, !tbaa !68
  %33 = getelementptr inbounds nuw %"class.ncnn::Mat", ptr %17, i32 0, i32 9
  %34 = load i32, ptr %12, align 4, !tbaa !23
  store i32 %34, ptr %33, align 8, !tbaa !27
  %35 = getelementptr inbounds nuw %"class.ncnn::Mat", ptr %17, i32 0, i32 6
  %36 = load i32, ptr %35, align 4, !tbaa !25
  %37 = sext i32 %36 to i64
  %38 = getelementptr inbounds nuw %"class.ncnn::Mat", ptr %17, i32 0, i32 7
  %39 = load i32, ptr %38, align 8, !tbaa !26
  %40 = sext i32 %39 to i64
  %41 = mul i64 %37, %40
  %42 = getelementptr inbounds nuw %"class.ncnn::Mat", ptr %17, i32 0, i32 2
  %43 = load i64, ptr %42, align 8, !tbaa !64
  %44 = mul i64 %41, %43
  %45 = call noundef i64 @_ZN4ncnnL9alignSizeEmi(i64 noundef %44, i32 noundef 16)
  %46 = getelementptr inbounds nuw %"class.ncnn::Mat", ptr %17, i32 0, i32 2
  %47 = load i64, ptr %46, align 8, !tbaa !64
  %48 = udiv i64 %45, %47
  %49 = getelementptr inbounds nuw %"class.ncnn::Mat", ptr %17, i32 0, i32 10
  store i64 %48, ptr %49, align 8, !tbaa !69
  ret void
}

; Function Attrs: noinline noreturn nounwind uwtable
define linkonce_odr hidden void @__clang_call_terminate(ptr noundef %0) #8 comdat {
  %2 = call ptr @__cxa_begin_catch(ptr %0) #7
  call void @_ZSt9terminatev() #17
  unreachable
}

; Function Attrs: alwaysinline mustprogress nounwind uwtable
define linkonce_odr hidden noundef ptr @_ZNK4ncnn3MatcvPKT_IfEEv(ptr noundef nonnull align 8 dereferenceable(72) %0) #4 comdat align 2 {
  %2 = alloca ptr, align 8
  store ptr %0, ptr %2, align 8, !tbaa !13
  %3 = load ptr, ptr %2, align 8
  %4 = getelementptr inbounds nuw %"class.ncnn::Mat", ptr %3, i32 0, i32 0
  %5 = load ptr, ptr %4, align 8, !tbaa !50
  ret ptr %5
}

; Function Attrs: alwaysinline mustprogress nounwind uwtable
define linkonce_odr hidden void @_ZN4ncnn3MatD2Ev(ptr noundef nonnull align 8 dereferenceable(72) %0) unnamed_addr #4 comdat align 2 personality ptr @__gxx_personality_v0 {
  %2 = alloca ptr, align 8
  store ptr %0, ptr %2, align 8, !tbaa !13
  %3 = load ptr, ptr %2, align 8
  invoke void @_ZN4ncnn3Mat7releaseEv(ptr noundef nonnull align 8 dereferenceable(72) %3)
          to label %4 unwind label %5

4:                                                ; preds = %1
  ret void

5:                                                ; preds = %1
  %6 = landingpad { ptr, i32 }
          catch ptr null
  %7 = extractvalue { ptr, i32 } %6, 0
  call void @__clang_call_terminate(ptr %7) #17
  unreachable
}

; Function Attrs: alwaysinline mustprogress nounwind uwtable
define linkonce_odr hidden noundef ptr @_ZN4ncnn3MatcvPT_IfEEv(ptr noundef nonnull align 8 dereferenceable(72) %0) #4 comdat align 2 {
  %2 = alloca ptr, align 8
  store ptr %0, ptr %2, align 8, !tbaa !13
  %3 = load ptr, ptr %2, align 8
  %4 = getelementptr inbounds nuw %"class.ncnn::Mat", ptr %3, i32 0, i32 0
  %5 = load ptr, ptr %4, align 8, !tbaa !50
  ret ptr %5
}

; Function Attrs: alwaysinline mustprogress uwtable
define linkonce_odr hidden void @_ZN4ncnn3Mat7channelEi(ptr dead_on_unwind noalias writable sret(%"class.ncnn::Mat") align 8 %0, ptr noundef nonnull align 8 dereferenceable(72) %1, i32 noundef %2) #9 comdat align 2 {
  %4 = alloca ptr, align 8
  %5 = alloca ptr, align 8
  %6 = alloca i32, align 4
  %7 = alloca i1, align 1
  store ptr %0, ptr %4, align 8
  store ptr %1, ptr %5, align 8, !tbaa !13
  store i32 %2, ptr %6, align 4, !tbaa !23
  %8 = load ptr, ptr %5, align 8
  store i1 false, ptr %7, align 1
  %9 = getelementptr inbounds nuw %"class.ncnn::Mat", ptr %8, i32 0, i32 6
  %10 = load i32, ptr %9, align 4, !tbaa !25
  %11 = getelementptr inbounds nuw %"class.ncnn::Mat", ptr %8, i32 0, i32 7
  %12 = load i32, ptr %11, align 8, !tbaa !26
  %13 = getelementptr inbounds nuw %"class.ncnn::Mat", ptr %8, i32 0, i32 8
  %14 = load i32, ptr %13, align 4, !tbaa !68
  %15 = getelementptr inbounds nuw %"class.ncnn::Mat", ptr %8, i32 0, i32 0
  %16 = load ptr, ptr %15, align 8, !tbaa !50
  %17 = getelementptr inbounds nuw %"class.ncnn::Mat", ptr %8, i32 0, i32 10
  %18 = load i64, ptr %17, align 8, !tbaa !69
  %19 = load i32, ptr %6, align 4, !tbaa !23
  %20 = sext i32 %19 to i64
  %21 = mul i64 %18, %20
  %22 = getelementptr inbounds nuw %"class.ncnn::Mat", ptr %8, i32 0, i32 2
  %23 = load i64, ptr %22, align 8, !tbaa !64
  %24 = mul i64 %21, %23
  %25 = getelementptr inbounds nuw i8, ptr %16, i64 %24
  %26 = getelementptr inbounds nuw %"class.ncnn::Mat", ptr %8, i32 0, i32 2
  %27 = load i64, ptr %26, align 8, !tbaa !64
  %28 = getelementptr inbounds nuw %"class.ncnn::Mat", ptr %8, i32 0, i32 3
  %29 = load i32, ptr %28, align 8, !tbaa !24
  %30 = getelementptr inbounds nuw %"class.ncnn::Mat", ptr %8, i32 0, i32 4
  %31 = load ptr, ptr %30, align 8, !tbaa !70
  call void @_ZN4ncnn3MatC2EiiiPvmiPNS_9AllocatorE(ptr noundef nonnull align 8 dereferenceable(72) %0, i32 noundef %10, i32 noundef %12, i32 noundef %14, ptr noundef %25, i64 noundef %27, i32 noundef %29, ptr noundef %31)
  %32 = getelementptr inbounds nuw %"class.ncnn::Mat", ptr %8, i32 0, i32 5
  %33 = load i32, ptr %32, align 8, !tbaa !17
  %34 = sub nsw i32 %33, 1
  %35 = getelementptr inbounds nuw %"class.ncnn::Mat", ptr %0, i32 0, i32 5
  store i32 %34, ptr %35, align 8, !tbaa !17
  %36 = getelementptr inbounds nuw %"class.ncnn::Mat", ptr %8, i32 0, i32 5
  %37 = load i32, ptr %36, align 8, !tbaa !17
  %38 = icmp eq i32 %37, 4
  br i1 %38, label %39, label %48

39:                                               ; preds = %3
  %40 = getelementptr inbounds nuw %"class.ncnn::Mat", ptr %8, i32 0, i32 6
  %41 = load i32, ptr %40, align 4, !tbaa !25
  %42 = sext i32 %41 to i64
  %43 = getelementptr inbounds nuw %"class.ncnn::Mat", ptr %8, i32 0, i32 7
  %44 = load i32, ptr %43, align 8, !tbaa !26
  %45 = sext i32 %44 to i64
  %46 = mul i64 %42, %45
  %47 = getelementptr inbounds nuw %"class.ncnn::Mat", ptr %0, i32 0, i32 10
  store i64 %46, ptr %47, align 8, !tbaa !69
  br label %48

48:                                               ; preds = %39, %3
  store i1 true, ptr %7, align 1
  %49 = load i1, ptr %7, align 1
  br i1 %49, label %51, label %50

50:                                               ; preds = %48
  call void @_ZN4ncnn3MatD2Ev(ptr noundef nonnull align 8 dereferenceable(72) %0) #7
  br label %51

51:                                               ; preds = %50, %48
  ret void
}

; Function Attrs: alwaysinline norecurse nounwind uwtable
define internal void @_ZNK4ncnn13LayerNorm_x8615forward_inplaceERNS_3MatERKNS_6OptionE.omp_outlined.2(ptr noalias noundef %0, ptr noalias noundef %1, ptr noundef nonnull align 4 dereferenceable(4) %2, ptr noundef nonnull align 8 dereferenceable(72) %3, ptr noundef %4, ptr noundef nonnull align 4 dereferenceable(4) %5, ptr noundef nonnull align 4 dereferenceable(4) %6, ptr noundef nonnull align 4 dereferenceable(4) %7) #6 personality ptr @__gxx_personality_v0 {
  %9 = alloca ptr, align 8
  %10 = alloca ptr, align 8
  %11 = alloca ptr, align 8
  %12 = alloca ptr, align 8
  %13 = alloca ptr, align 8
  %14 = alloca ptr, align 8
  %15 = alloca ptr, align 8
  %16 = alloca ptr, align 8
  %17 = alloca ptr, align 8
  %18 = alloca i32, align 4
  %19 = alloca i32, align 4
  %20 = alloca i32, align 4
  %21 = alloca i32, align 4
  %22 = alloca i32, align 4
  %23 = alloca i32, align 4
  %24 = alloca i32, align 4
  %25 = alloca i32, align 4
  %26 = alloca i32, align 4
  %27 = alloca ptr, align 8
  %28 = alloca %"class.ncnn::Mat", align 8
  store ptr %0, ptr %9, align 8, !tbaa !63
  store ptr %1, ptr %10, align 8, !tbaa !63
  store ptr %2, ptr %11, align 8, !tbaa !63
  store ptr %3, ptr %12, align 8, !tbaa !13
  store ptr %4, ptr %13, align 8, !tbaa !11
  store ptr %5, ptr %14, align 8, !tbaa !63
  store ptr %6, ptr %15, align 8, !tbaa !63
  store ptr %7, ptr %16, align 8, !tbaa !63
  %29 = load ptr, ptr %11, align 8, !tbaa !63
  %30 = load ptr, ptr %12, align 8, !tbaa !13
  %31 = load ptr, ptr %13, align 8, !tbaa !11
  %32 = load ptr, ptr %14, align 8, !tbaa !63
  %33 = load ptr, ptr %15, align 8, !tbaa !63
  %34 = load ptr, ptr %16, align 8, !tbaa !63
  store ptr %30, ptr %17, align 8
  call void @llvm.lifetime.start.p0(i64 4, ptr %18) #7
  call void @llvm.lifetime.start.p0(i64 4, ptr %19) #7
  %35 = load i32, ptr %29, align 4, !tbaa !23
  store i32 %35, ptr %19, align 4, !tbaa !23
  call void @llvm.lifetime.start.p0(i64 4, ptr %20) #7
  %36 = load i32, ptr %19, align 4, !tbaa !23
  %37 = sub nsw i32 %36, 0
  %38 = sdiv i32 %37, 1
  %39 = sub nsw i32 %38, 1
  store i32 %39, ptr %20, align 4, !tbaa !23
  call void @llvm.lifetime.start.p0(i64 4, ptr %21) #7
  store i32 0, ptr %21, align 4, !tbaa !23
  call void @llvm.lifetime.end.p0(i64 4, ptr %21) #7
  %40 = load i32, ptr %19, align 4, !tbaa !23
  %41 = icmp slt i32 0, %40
  br i1 %41, label %42, label %92

42:                                               ; preds = %8
  call void @llvm.lifetime.start.p0(i64 4, ptr %22) #7
  store i32 0, ptr %22, align 4, !tbaa !23
  call void @llvm.lifetime.start.p0(i64 4, ptr %23) #7
  %43 = load i32, ptr %20, align 4, !tbaa !23
  store i32 %43, ptr %23, align 4, !tbaa !23
  call void @llvm.lifetime.start.p0(i64 4, ptr %24) #7
  store i32 1, ptr %24, align 4, !tbaa !23
  call void @llvm.lifetime.start.p0(i64 4, ptr %25) #7
  store i32 0, ptr %25, align 4, !tbaa !23
  call void @llvm.lifetime.start.p0(i64 4, ptr %26) #7
  %44 = load ptr, ptr %9, align 8
  %45 = load i32, ptr %44, align 4, !tbaa !23
  call void @__kmpc_for_static_init_4(ptr @1, i32 %45, i32 34, ptr %25, ptr %22, ptr %23, ptr %24, i32 1, i32 1)
  %46 = load i32, ptr %23, align 4, !tbaa !23
  %47 = load i32, ptr %20, align 4, !tbaa !23
  %48 = icmp sgt i32 %46, %47
  br i1 %48, label %49, label %51

49:                                               ; preds = %42
  %50 = load i32, ptr %20, align 4, !tbaa !23
  br label %53

51:                                               ; preds = %42
  %52 = load i32, ptr %23, align 4, !tbaa !23
  br label %53

53:                                               ; preds = %51, %49
  %54 = phi i32 [ %50, %49 ], [ %52, %51 ]
  store i32 %54, ptr %23, align 4, !tbaa !23
  %55 = load i32, ptr %22, align 4, !tbaa !23
  store i32 %55, ptr %18, align 4, !tbaa !23
  br label %56

56:                                               ; preds = %85, %53
  %57 = load i32, ptr %18, align 4, !tbaa !23
  %58 = load i32, ptr %23, align 4, !tbaa !23
  %59 = icmp sle i32 %57, %58
  br i1 %59, label %61, label %60

60:                                               ; preds = %56
  br label %88

61:                                               ; preds = %56
  %62 = load i32, ptr %18, align 4, !tbaa !23
  %63 = mul nsw i32 %62, 1
  %64 = add nsw i32 0, %63
  store i32 %64, ptr %26, align 4, !tbaa !23
  call void @llvm.lifetime.start.p0(i64 8, ptr %27) #7
  call void @llvm.lifetime.start.p0(i64 72, ptr %28) #7
  %65 = load ptr, ptr %17, align 8, !tbaa !13
  %66 = load i32, ptr %26, align 4, !tbaa !23
  invoke void @_ZN4ncnn3Mat7channelEi(ptr dead_on_unwind writable sret(%"class.ncnn::Mat") align 8 %28, ptr noundef nonnull align 8 dereferenceable(72) %65, i32 noundef %66)
          to label %67 unwind label %93

67:                                               ; preds = %61
  %68 = invoke noundef ptr @_ZN4ncnn3MatcvPT_IfEEv(ptr noundef nonnull align 8 dereferenceable(72) %28)
          to label %69 unwind label %93

69:                                               ; preds = %67
  call void @_ZN4ncnn3MatD2Ev(ptr noundef nonnull align 8 dereferenceable(72) %28) #7
  call void @llvm.lifetime.end.p0(i64 72, ptr %28) #7
  store ptr %68, ptr %27, align 8, !tbaa !28
  %70 = load ptr, ptr %27, align 8, !tbaa !28
  %71 = getelementptr inbounds nuw %"class.ncnn::LayerNorm", ptr %31, i32 0, i32 4
  %72 = invoke noundef ptr @_ZNK4ncnn3MatcvPKT_IfEEv(ptr noundef nonnull align 8 dereferenceable(72) %71)
          to label %73 unwind label %93

73:                                               ; preds = %69
  %74 = getelementptr inbounds nuw %"class.ncnn::LayerNorm", ptr %31, i32 0, i32 5
  %75 = invoke noundef ptr @_ZNK4ncnn3MatcvPKT_IfEEv(ptr noundef nonnull align 8 dereferenceable(72) %74)
          to label %76 unwind label %93

76:                                               ; preds = %73
  %77 = getelementptr inbounds nuw %"class.ncnn::LayerNorm", ptr %31, i32 0, i32 2
  %78 = load float, ptr %77, align 4, !tbaa !30
  %79 = load i32, ptr %32, align 4, !tbaa !23
  %80 = load i32, ptr %33, align 4, !tbaa !23
  %81 = mul nsw i32 %79, %80
  %82 = load i32, ptr %34, align 4, !tbaa !23
  invoke void @_ZN4ncnnL9layernormEPfPKfS2_fii(ptr noundef %70, ptr noundef %72, ptr noundef %75, float noundef nofpclass(nan inf) %78, i32 noundef %81, i32 noundef %82)
          to label %83 unwind label %93

83:                                               ; preds = %76
  call void @llvm.lifetime.end.p0(i64 8, ptr %27) #7
  br label %84

84:                                               ; preds = %83
  br label %85

85:                                               ; preds = %84
  %86 = load i32, ptr %18, align 4, !tbaa !23
  %87 = add nsw i32 %86, 1
  store i32 %87, ptr %18, align 4, !tbaa !23
  br label %56

88:                                               ; preds = %60
  br label %89

89:                                               ; preds = %88
  %90 = load ptr, ptr %9, align 8
  %91 = load i32, ptr %90, align 4, !tbaa !23
  call void @__kmpc_for_static_fini(ptr @1, i32 %91)
  call void @llvm.lifetime.end.p0(i64 4, ptr %26) #7
  call void @llvm.lifetime.end.p0(i64 4, ptr %25) #7
  call void @llvm.lifetime.end.p0(i64 4, ptr %24) #7
  call void @llvm.lifetime.end.p0(i64 4, ptr %23) #7
  call void @llvm.lifetime.end.p0(i64 4, ptr %22) #7
  br label %92

92:                                               ; preds = %89, %8
  call void @llvm.lifetime.end.p0(i64 4, ptr %20) #7
  call void @llvm.lifetime.end.p0(i64 4, ptr %19) #7
  call void @llvm.lifetime.end.p0(i64 4, ptr %18) #7
  ret void

93:                                               ; preds = %76, %73, %69, %67, %61
  %94 = landingpad { ptr, i32 }
          catch ptr null
  %95 = extractvalue { ptr, i32 } %94, 0
  call void @__clang_call_terminate(ptr %95) #17
  unreachable
}